; ModuleID = '15/603.c'
source_filename = "15/603.c"
target datalayout = "e-m:e-p270:32:32-p271:32:32-p272:64:64-i64:64-f80:128-n8:16:32:64-S128"
target triple = "x86_64-pc-linux-gnu"

@.str = private unnamed_addr constant [4 x i8] c"%d\0A\00", align 1
@.str.1 = private unnamed_addr constant [3 x i8] c"%d\00", align 1

; Function Attrs: noinline nounwind uwtable
define dso_local i32 @main(i32 %0, i8** %1) #0 {
  %3 = alloca i32, align 4
  %4 = alloca i32, align 4
  %5 = alloca i8**, align 8
  %6 = alloca i32, align 4
  %7 = alloca i32, align 4
  %8 = alloca i32, align 4
  %9 = alloca i32, align 4
  %10 = alloca i32, align 4
  %11 = alloca i32, align 4
  %12 = alloca i32, align 4
  %13 = alloca [100 x [100 x i32]], align 16
  store i32 0, i32* %3, align 4
  store i32 %0, i32* %4, align 4
  store i8** %1, i8*** %5, align 8
  store i32 0, i32* %9, align 4
  %14 = call i32 (i8*, ...) @__isoc99_scanf(i8* getelementptr inbounds ([4 x i8], [4 x i8]* @.str, i64 0, i64 0), i32* %7)
  store i32 0, i32* %6, align 4
  br label %15

15:                                               ; preds = %36, %2
  %16 = load i32, i32* %6, align 4
  %17 = load i32, i32* %7, align 4
  %18 = icmp slt i32 %16, %17
  br i1 %18, label %19, label %39

19:                                               ; preds = %15
  store i32 0, i32* %8, align 4
  br label %20

20:                                               ; preds = %32, %19
  %21 = load i32, i32* %8, align 4
  %22 = load i32, i32* %7, align 4
  %23 = icmp slt i32 %21, %22
  br i1 %23, label %24, label %35

24:                                               ; preds = %20
  %25 = load i32, i32* %6, align 4
  %26 = sext i32 %25 to i64
  %27 = getelementptr inbounds [100 x [100 x i32]], [100 x [100 x i32]]* %13, i64 0, i64 %26
  %28 = load i32, i32* %8, align 4
  %29 = sext i32 %28 to i64
  %30 = getelementptr inbounds [100 x i32], [100 x i32]* %27, i64 0, i64 %29
  %31 = call i32 (i8*, ...) @__isoc99_scanf(i8* getelementptr inbounds ([3 x i8], [3 x i8]* @.str.1, i64 0, i64 0), i32* %30)
  br label %32

32:                                               ; preds = %24
  %33 = load i32, i32* %8, align 4
  %34 = add nsw i32 %33, 1
  store i32 %34, i32* %8, align 4
  br label %20

35:                                               ; preds = %20
  br label %36

36:                                               ; preds = %35
  %37 = load i32, i32* %6, align 4
  %38 = add nsw i32 %37, 1
  store i32 %38, i32* %6, align 4
  br label %15

39:                                               ; preds = %15
  store i32 0, i32* %6, align 4
  br label %40

40:                                               ; preds = %71, %39
  %41 = load i32, i32* %6, align 4
  %42 = load i32, i32* %7, align 4
  %43 = icmp slt i32 %41, %42
  br i1 %43, label %44, label %74

44:                                               ; preds = %40
  store i32 0, i32* %8, align 4
  br label %45

45:                                               ; preds = %62, %44
  %46 = load i32, i32* %8, align 4
  %47 = load i32, i32* %7, align 4
  %48 = icmp slt i32 %46, %47
  br i1 %48, label %49, label %65

49:                                               ; preds = %45
  %50 = load i32, i32* %6, align 4
  %51 = sext i32 %50 to i64
  %52 = getelementptr inbounds [100 x [100 x i32]], [100 x [100 x i32]]* %13, i64 0, i64 %51
  %53 = load i32, i32* %8, align 4
  %54 = sext i32 %53 to i64
  %55 = getelementptr inbounds [100 x i32], [100 x i32]* %52, i64 0, i64 %54
  %56 = load i32, i32* %55, align 4
  %57 = icmp eq i32 %56, 0
  br i1 %57, label %58, label %61

58:                                               ; preds = %49
  %59 = load i32, i32* %9, align 4
  %60 = add nsw i32 %59, 1
  store i32 %60, i32* %9, align 4
  br label %61

61:                                               ; preds = %58, %49
  br label %62

62:                                               ; preds = %61
  %63 = load i32, i32* %8, align 4
  %64 = add nsw i32 %63, 1
  store i32 %64, i32* %8, align 4
  br label %45

65:                                               ; preds = %45
  %66 = load i32, i32* %9, align 4
  %67 = icmp sgt i32 %66, 2
  br i1 %67, label %68, label %70

68:                                               ; preds = %65
  %69 = load i32, i32* %9, align 4
  store i32 %69, i32* %10, align 4
  br label %74

70:                                               ; preds = %65
  br label %71

71:                                               ; preds = %70
  %72 = load i32, i32* %6, align 4
  %73 = add nsw i32 %72, 1
  store i32 %73, i32* %6, align 4
  br label %40

74:                                               ; preds = %68, %40
  store i32 0, i32* %9, align 4
  store i32 0, i32* %8, align 4
  br label %75

75:                                               ; preds = %106, %74
  %76 = load i32, i32* %8, align 4
  %77 = load i32, i32* %7, align 4
  %78 = icmp slt i32 %76, %77
  br i1 %78, label %79, label %109

79:                                               ; preds = %75
  store i32 0, i32* %6, align 4
  br label %80

80:                                               ; preds = %97, %79
  %81 = load i32, i32* %6, align 4
  %82 = load i32, i32* %7, align 4
  %83 = icmp slt i32 %81, %82
  br i1 %83, label %84, label %100

84:                                               ; preds = %80
  %85 = load i32, i32* %6, align 4
  %86 = sext i32 %85 to i64
  %87 = getelementptr inbounds [100 x [100 x i32]], [100 x [100 x i32]]* %13, i64 0, i64 %86
  %88 = load i32, i32* %8, align 4
  %89 = sext i32 %88 to i64
  %90 = getelementptr inbounds [100 x i32], [100 x i32]* %87, i64 0, i64 %89
  %91 = load i32, i32* %90, align 4
  %92 = icmp eq i32 %91, 0
  br i1 %92, label %93, label %96

93:                                               ; preds = %84
  %94 = load i32, i32* %9, align 4
  %95 = add nsw i32 %94, 1
  store i32 %95, i32* %9, align 4
  br label %96

96:                                               ; preds = %93, %84
  br label %97

97:                                               ; preds = %96
  %98 = load i32, i32* %6, align 4
  %99 = add nsw i32 %98, 1
  store i32 %99, i32* %6, align 4
  br label %80

100:                                              ; preds = %80
  %101 = load i32, i32* %9, align 4
  %102 = icmp sgt i32 %101, 2
  br i1 %102, label %103, label %105

103:                                              ; preds = %100
  %104 = load i32, i32* %9, align 4
  store i32 %104, i32* %11, align 4
  br label %109

105:                                              ; preds = %100
  br label %106

106:                                              ; preds = %105
  %107 = load i32, i32* %8, align 4
  %108 = add nsw i32 %107, 1
  store i32 %108, i32* %8, align 4
  br label %75

109:                                              ; preds = %103, %75
  %110 = load i32, i32* %11, align 4
  %111 = sub nsw i32 %110, 2
  %112 = load i32, i32* %10, align 4
  %113 = sub nsw i32 %112, 2
  %114 = mul nsw i32 %111, %113
  store i32 %114, i32* %12, align 4
  %115 = load i32, i32* %12, align 4
  %116 = call i32 (i8*, ...) @printf(i8* getelementptr inbounds ([4 x i8], [4 x i8]* @.str, i64 0, i64 0), i32 %115)
  ret i32 0
}

declare dso_local i32 @__isoc99_scanf(i8*, ...) #1

declare dso_local i32 @printf(i8*, ...) #1


!llvm.module.flags = !{!0}
!llvm.ident = !{!1}

!0 = !{i32 1, !"wchar_size", i32 4}
!1 = !{!"clang version 10.0.0-4ubuntu1 "}
